target datalayout = "e-m:e-p270:32:32-p271:32:32-p272:64:64-i64:64-i128:128-f80:128-n8:16:32:64-S128"
target triple = "x86_64-unknown-linux-gnu"

%struct.UResourceBundle = type { ptr, ptr, ptr, ptr, ptr, [64 x i8], i32, i32, i8, i8, i32, i32, i32, i32 }

@.str.3 = private unnamed_addr constant [8 x i8] c"Version\00", align 1
@.str.4 = private unnamed_addr constant [2 x i8] c"0\00", align 1

; Function Attrs: mustprogress uwtable
define ptr @ures_getVersionNumberInternal_75(ptr noundef %resourceBundle) #1 {
entry:
  %retval = alloca ptr, align 8
  %resourceBundle.addr = alloca ptr, align 8
  %status = alloca i32, align 4
  %minor_len = alloca i32, align 4
  %len = alloca i32, align 4
  %minor_version = alloca ptr, align 8
  store ptr %resourceBundle, ptr %resourceBundle.addr, align 8
  %0 = load ptr, ptr %resourceBundle.addr, align 8
  %tobool = icmp ne ptr %0, null
  br i1 %tobool, label %if.end, label %if.then

if.then:                                          ; preds = %entry
  store ptr null, ptr %retval, align 8
  br label %return

if.end:                                           ; preds = %entry
  %1 = load ptr, ptr %resourceBundle.addr, align 8
  %fVersion = getelementptr inbounds %struct.UResourceBundle, ptr %1, i32 0, i32 2
  %2 = load ptr, ptr %fVersion, align 8
  %cmp = icmp eq ptr %2, null
  br i1 %cmp, label %if.then1, label %if.end16

if.then1:                                         ; preds = %if.end
  store i32 0, ptr %status, align 4
  store i32 0, ptr %minor_len, align 4
  %3 = load ptr, ptr %resourceBundle.addr, align 8
  %call = call ptr @ures_getStringByKey_75(ptr noundef %3, ptr noundef @.str.3, ptr noundef %minor_len, ptr noundef %status)
  store ptr %call, ptr %minor_version, align 8
  %4 = load i32, ptr %minor_len, align 4
  %cmp2 = icmp sgt i32 %4, 0
  br i1 %cmp2, label %cond.true, label %cond.false

cond.true:                                        ; preds = %if.then1
  %5 = load i32, ptr %minor_len, align 4
  br label %cond.end

cond.false:                                       ; preds = %if.then1
  br label %cond.end

cond.end:                                         ; preds = %cond.false, %cond.true
  %cond = phi i32 [ %5, %cond.true ], [ 1, %cond.false ]
  store i32 %cond, ptr %len, align 4
  %6 = load i32, ptr %len, align 4
  %add = add nsw i32 1, %6
  %conv = sext i32 %add to i64
  %call3 = call noalias ptr @uprv_malloc_75(i64 noundef %conv) #11
  %7 = load ptr, ptr %resourceBundle.addr, align 8
  %fVersion4 = getelementptr inbounds %struct.UResourceBundle, ptr %7, i32 0, i32 2
  store ptr %call3, ptr %fVersion4, align 8
  %8 = load ptr, ptr %resourceBundle.addr, align 8
  %fVersion5 = getelementptr inbounds %struct.UResourceBundle, ptr %8, i32 0, i32 2
  %9 = load ptr, ptr %fVersion5, align 8
  %cmp6 = icmp eq ptr %9, null
  br i1 %cmp6, label %if.then7, label %if.end8

if.then7:                                         ; preds = %cond.end
  store ptr null, ptr %retval, align 8
  br label %return

if.end8:                                          ; preds = %cond.end
  %10 = load i32, ptr %minor_len, align 4
  %cmp9 = icmp sgt i32 %10, 0
  br i1 %cmp9, label %if.then10, label %if.else

if.then10:                                        ; preds = %if.end8
  %11 = load ptr, ptr %minor_version, align 8
  %12 = load ptr, ptr %resourceBundle.addr, align 8
  %fVersion11 = getelementptr inbounds %struct.UResourceBundle, ptr %12, i32 0, i32 2
  %13 = load ptr, ptr %fVersion11, align 8
  %14 = load i32, ptr %minor_len, align 4
  call void @u_UCharsToChars_75(ptr noundef %11, ptr noundef %13, i32 noundef %14)
  %15 = load ptr, ptr %resourceBundle.addr, align 8
  %fVersion12 = getelementptr inbounds %struct.UResourceBundle, ptr %15, i32 0, i32 2
  %16 = load ptr, ptr %fVersion12, align 8
  %17 = load i32, ptr %len, align 4
  %idxprom = sext i32 %17 to i64
  %arrayidx = getelementptr inbounds i8, ptr %16, i64 %idxprom
  store i8 0, ptr %arrayidx, align 1
  br label %if.end15

if.else:                                          ; preds = %if.end8
  %18 = load ptr, ptr %resourceBundle.addr, align 8
  %fVersion13 = getelementptr inbounds %struct.UResourceBundle, ptr %18, i32 0, i32 2
  %19 = load ptr, ptr %fVersion13, align 8
  %call14 = call ptr @strcpy(ptr noundef %19, ptr noundef @.str.4) #10
  br label %if.end15

if.end15:                                         ; preds = %if.else, %if.then10
  br label %if.end16

if.end16:                                         ; preds = %if.end15, %if.end
  %20 = load ptr, ptr %resourceBundle.addr, align 8
  %fVersion17 = getelementptr inbounds %struct.UResourceBundle, ptr %20, i32 0, i32 2
  %21 = load ptr, ptr %fVersion17, align 8
  store ptr %21, ptr %retval, align 8
  br label %return

return:                                           ; preds = %if.end16, %if.then7, %if.then
  %22 = load ptr, ptr %retval, align 8
  ret ptr %22
}