; Function Attrs: mustprogress uwtable
define ptr @ures_getVersionNumberInternal_75(ptr noundef %resourceBundle) local_unnamed_addr #1 {
entry:
  %status = alloca i32, align 4
  %minor_len = alloca i32, align 4
  %tobool.not = icmp eq ptr %resourceBundle, null
  br i1 %tobool.not, label %return, label %if.end

if.end:                                           ; preds = %entry
  %fVersion = getelementptr inbounds i8, ptr %resourceBundle, i64 16
  %0 = load ptr, ptr %fVersion, align 8
  %cmp = icmp eq ptr %0, null
  br i1 %cmp, label %if.then1, label %return

if.then1:                                         ; preds = %if.end
  store i32 0, ptr %status, align 4
  store i32 0, ptr %minor_len, align 4
  %call = call ptr @ures_getStringByKey_75(ptr noundef nonnull %resourceBundle, ptr noundef nonnull @.str.3, ptr noundef nonnull %minor_len, ptr noundef nonnull %status)
  %1 = load i32, ptr %minor_len, align 4
  %cond = call i32 @llvm.smax.i32(i32 %1, i32 1)
  %add = add nuw nsw i32 %cond, 1
  %conv = zext nneg i32 %add to i64
  %call3 = call noalias ptr @uprv_malloc_75(i64 noundef %conv) #21
  store ptr %call3, ptr %fVersion, align 8
  %cmp6 = icmp eq ptr %call3, null
  br i1 %cmp6, label %return, label %if.end8

if.end8:                                          ; preds = %if.then1
  %2 = load i32, ptr %minor_len, align 4
  %cmp9 = icmp sgt i32 %2, 0
  br i1 %cmp9, label %if.then10, label %if.else

if.then10:                                        ; preds = %if.end8
  call void @u_UCharsToChars_75(ptr noundef %call, ptr noundef nonnull %call3, i32 noundef %2)
  %3 = load ptr, ptr %fVersion, align 8
  %idxprom = zext nneg i32 %cond to i64
  %arrayidx = getelementptr inbounds i8, ptr %3, i64 %idxprom
  store i8 0, ptr %arrayidx, align 1
  %.pre = load ptr, ptr %fVersion, align 8
  br label %return

if.else:                                          ; preds = %if.end8
  store i16 48, ptr %call3, align 1
  br label %return

return:                                           ; preds = %if.end, %if.else, %if.then10, %if.then1, %entry
  %retval.0 = phi ptr [ null, %entry ], [ null, %if.then1 ], [ %.pre, %if.then10 ], [ %call3, %if.else ], [ %0, %if.end ]
  ret ptr %retval.0
}